target datalayout = "e-m:e-p270:32:32-p271:32:32-p272:64:64-i64:64-i128:128-f80:128-n8:16:32:64-S128"
target triple = "x86_64-pc-linux-gnu"

@_mi_heap_default = hidden thread_local(localexec) global ptr @_mi_heap_empty, align 8
@_mi_heap_default_key = hidden global i32 -1, align 4

; Function Attrs: mustprogress nounwind uwtable
define hidden void @_Z38_mi_prim_thread_associate_default_heapP9mi_heap_s(ptr noundef %0) #5 {
  %2 = alloca ptr, align 8
  store ptr %0, ptr %2, align 8, !tbaa !42
  %3 = load i32, ptr @_mi_heap_default_key, align 4, !tbaa !58
  %4 = icmp ne i32 %3, -1
  br i1 %4, label %5, label %9

5:                                                ; preds = %1
  %6 = load i32, ptr @_mi_heap_default_key, align 4, !tbaa !58
  %7 = load ptr, ptr %2, align 8, !tbaa !42
  %8 = call i32 @pthread_setspecific(i32 noundef %6, ptr noundef %7) #19
  br label %9

9:                                                ; preds = %5, %1
  ret void
}

; Function Attrs: mustprogress uwtable
define hidden void @_Z27_mi_heap_set_default_directP9mi_heap_s(ptr noundef %0) #0 {
  %2 = alloca ptr, align 8
  store ptr %0, ptr %2, align 8, !tbaa !42
  %3 = load ptr, ptr %2, align 8, !tbaa !42
  %4 = call align 8 ptr @llvm.threadlocal.address.p0(ptr align 8 @_mi_heap_default)
  store ptr %3, ptr %4, align 8, !tbaa !42
  %5 = load ptr, ptr %2, align 8, !tbaa !42
  call void @_Z38_mi_prim_thread_associate_default_heapP9mi_heap_s(ptr noundef %5)
  ret void
}

; Function Attrs: inlinehint mustprogress nounwind uwtable
define internal noundef ptr @_ZL24mi_prim_get_default_heapv() #3 {
  %1 = call align 8 ptr @llvm.threadlocal.address.p0(ptr align 8 @_mi_heap_default)
  %2 = load ptr, ptr %1, align 8, !tbaa !42
  ret ptr %2
}

; Function Attrs: inlinehint mustprogress nounwind uwtable
define internal noundef zeroext i1 @_ZL22mi_heap_is_initializedP9mi_heap_s(ptr noundef %0) #3 {
  %2 = alloca ptr, align 8
  store ptr %0, ptr %2, align 8, !tbaa !42
  %3 = load ptr, ptr %2, align 8, !tbaa !42
  %4 = icmp ne ptr %3, null
  br i1 %4, label %5, label %8

5:                                                ; preds = %1
  %6 = load ptr, ptr %2, align 8, !tbaa !42
  %7 = icmp ne ptr %6, @_mi_heap_empty
  br label %8

8:                                                ; preds = %5, %1
  %9 = phi i1 [ false, %1 ], [ %7, %5 ]
  ret i1 %9
}

; Function Attrs: mustprogress uwtable
define ptr @mi_heap_set_default(ptr noundef %0) #0 {
  %2 = alloca ptr, align 8
  %3 = alloca ptr, align 8
  %4 = alloca ptr, align 8
  store ptr %0, ptr %3, align 8, !tbaa !42
  %5 = load ptr, ptr %3, align 8, !tbaa !42
  %6 = icmp eq ptr %5, null
  br i1 %6, label %10, label %7

7:                                                ; preds = %1
  %8 = load ptr, ptr %3, align 8, !tbaa !42
  %9 = call noundef zeroext i1 @_ZL22mi_heap_is_initializedP9mi_heap_s(ptr noundef %8)
  br i1 %9, label %11, label %10

10:                                               ; preds = %7, %1
  store ptr null, ptr %2, align 8
  br label %15

11:                                               ; preds = %7
  call void @llvm.lifetime.start.p0(i64 8, ptr %4) #19
  %12 = call noundef ptr @_ZL24mi_prim_get_default_heapv()
  store ptr %12, ptr %4, align 8, !tbaa !42
  %13 = load ptr, ptr %3, align 8, !tbaa !42
  call void @_Z27_mi_heap_set_default_directP9mi_heap_s(ptr noundef %13)
  %14 = load ptr, ptr %4, align 8, !tbaa !42
  store ptr %14, ptr %2, align 8
  call void @llvm.lifetime.end.p0(i64 8, ptr %4) #19
  br label %15

15:                                               ; preds = %11, %10
  %16 = load ptr, ptr %2, align 8
  ret ptr %16
}