; Function Attrs: mustprogress nounwind uwtable
define ptr @mi_heap_set_default(ptr noundef %0) local_unnamed_addr #3 {
  %2 = icmp ne ptr %0, null
  %3 = icmp ne ptr %0, @_mi_heap_empty
  %or.cond = and i1 %2, %3
  br i1 %or.cond, label %4, label %_Z27_mi_heap_set_default_directP9mi_heap_s.exit

4:                                                ; preds = %1
  %5 = tail call align 8 ptr @llvm.threadlocal.address.p0(ptr align 8 @_mi_heap_default)
  %6 = load ptr, ptr %5, align 8, !tbaa !33
  store ptr %0, ptr %5, align 8, !tbaa !33
  %7 = load i32, ptr @_mi_heap_default_key, align 4, !tbaa !66
  %.not.i.i = icmp eq i32 %7, -1
  br i1 %.not.i.i, label %_Z27_mi_heap_set_default_directP9mi_heap_s.exit, label %8

8:                                                ; preds = %4
  %9 = tail call i32 @pthread_setspecific(i32 noundef %7, ptr noundef nonnull %0) #55
  br label %_Z27_mi_heap_set_default_directP9mi_heap_s.exit

_Z27_mi_heap_set_default_directP9mi_heap_s.exit:  ; preds = %8, %4, %1
  %.0 = phi ptr [ null, %1 ], [ %6, %4 ], [ %6, %8 ]
  ret ptr %.0
}